; Function Attrs: mustprogress nofree norecurse nosync nounwind willreturn memory(read, inaccessiblemem: none) uwtable
define range(i32 0, 7) i32 @Gia_ManEncodeObj(ptr noundef readonly captures(none) %0, i32 noundef %1) local_unnamed_addr #12 {
  %3 = getelementptr i8, ptr %0, i64 32
  %.val = load ptr, ptr %3, align 8
  %4 = sext i32 %1 to i64
  %5 = getelementptr inbounds %struct.Gia_Obj_t_, ptr %.val, i64 %4
  %.val18 = load i64, ptr %5, align 4
  %6 = and i64 %.val18, 2305843005455597567
  %narrow.i.not = icmp eq i64 %6, 2305843005455597567
  br i1 %narrow.i.not, label %36, label %7

7:                                                ; preds = %2
  %8 = and i64 %.val18, 2147483648
  %.not.i.i = icmp eq i64 %8, 0
  %9 = and i64 %.val18, 536870911
  %10 = icmp eq i64 %9, 536870911
  %narrow.i.not.i = or i1 %.not.i.i, %10
  br i1 %narrow.i.not.i, label %Gia_ObjIsPo.exit.thread, label %Gia_ObjIsPo.exit

Gia_ObjIsPo.exit:                                 ; preds = %7
  %11 = lshr i64 %.val18, 32
  %12 = trunc nuw i64 %11 to i32
  %13 = and i32 %12, 536870911
  %14 = getelementptr i8, ptr %0, i64 16
  %.val4.i = load i32, ptr %14, align 8
  %15 = getelementptr i8, ptr %0, i64 72
  %.val5.i = load ptr, ptr %15, align 8
  %16 = getelementptr i8, ptr %.val5.i, i64 4
  %.val5.val.i = load i32, ptr %16, align 4
  %17 = sub nsw i32 %.val5.val.i, %.val4.i
  %.not = icmp slt i32 %13, %17
  br i1 %.not, label %36, label %Gia_ObjIsPo.exit.thread

Gia_ObjIsPo.exit.thread:                          ; preds = %7, %Gia_ObjIsPo.exit
  %18 = and i64 %.val18, 2684354559
  %narrow.i.not.i23 = icmp eq i64 %18, 2684354559
  br i1 %narrow.i.not.i23, label %Gia_ObjIsPi.exit, label %26

Gia_ObjIsPi.exit:                                 ; preds = %Gia_ObjIsPo.exit.thread
  %19 = lshr i64 %.val18, 32
  %20 = trunc nuw i64 %19 to i32
  %21 = and i32 %20, 536870911
  %22 = getelementptr i8, ptr %0, i64 16
  %.val4.i24 = load i32, ptr %22, align 8
  %23 = getelementptr i8, ptr %0, i64 64
  %.val5.i25 = load ptr, ptr %23, align 8
  %24 = getelementptr i8, ptr %.val5.i25, i64 4
  %.val5.val.i26 = load i32, ptr %24, align 4
  %25 = sub nsw i32 %.val5.val.i26, %.val4.i24
  %.not39 = icmp slt i32 %21, %25
  %spec.select = select i1 %.not39, i32 2, i32 3
  br label %36

26:                                               ; preds = %Gia_ObjIsPo.exit.thread
  %.not.i.i28 = icmp ne i64 %8, 0
  %narrow.i.not.i29 = or i1 %.not.i.i28, %10
  br i1 %narrow.i.not.i29, label %Gia_ObjIsXor.exit.thread, label %Gia_ObjIsXor.exit

Gia_ObjIsXor.exit:                                ; preds = %26
  %27 = trunc i64 %.val18 to i32
  %28 = and i32 %27, 536870911
  %29 = lshr i64 %.val18, 32
  %30 = trunc nuw i64 %29 to i32
  %31 = and i32 %30, 536870911
  %.not37 = icmp samesign ult i32 %28, %31
  br i1 %.not37, label %36, label %Gia_ObjIsXor.exit.thread

Gia_ObjIsXor.exit.thread:                         ; preds = %26, %Gia_ObjIsXor.exit
  %32 = getelementptr i8, ptr %0, i64 40
  %.val22 = load ptr, ptr %32, align 8
  %.not.i.i30 = icmp eq ptr %.val22, null
  br i1 %.not.i.i30, label %Gia_ObjIsMux.exit.thread, label %Gia_ObjIsMux.exit

Gia_ObjIsMux.exit:                                ; preds = %Gia_ObjIsXor.exit.thread
  %33 = shl nsw i64 %4, 2
  %34 = getelementptr inbounds i8, ptr %.val22, i64 %33
  %35 = load i32, ptr %34, align 4
  %.fr = freeze i32 %35
  %.not38 = icmp eq i32 %.fr, 0
  br i1 %.not38, label %Gia_ObjIsMux.exit.thread, label %36

Gia_ObjIsMux.exit.thread:                         ; preds = %Gia_ObjIsXor.exit.thread, %Gia_ObjIsMux.exit
  br label %36

36:                                               ; preds = %Gia_ObjIsPi.exit, %Gia_ObjIsMux.exit.thread, %Gia_ObjIsMux.exit, %Gia_ObjIsXor.exit, %Gia_ObjIsPo.exit, %2
  %.0 = phi i32 [ 0, %2 ], [ 1, %Gia_ObjIsPo.exit ], [ 4, %Gia_ObjIsXor.exit ], [ 6, %Gia_ObjIsMux.exit.thread ], [ 5, %Gia_ObjIsMux.exit ], [ %spec.select, %Gia_ObjIsPi.exit ]
  ret i32 %.0
}